target datalayout = "e-m:e-p270:32:32-p271:32:32-p272:64:64-i64:64-i128:128-f80:128-n8:16:32:64-S128"
target triple = "x86_64-pc-linux-gnu"

@.str.3 = private unnamed_addr constant [2 x i8] c"\0A\00", align 1
@.str.4 = private unnamed_addr constant [31 x i8] c"    fsm [options] [selection]\0A\00", align 1
@.str.5 = private unnamed_addr constant [77 x i8] c"This pass calls all the other fsm_* passes in a useful order. This performs\0A\00", align 1
@.str.6 = private unnamed_addr constant [69 x i8] c"FSM extraction and optimization. It also calls opt_clean as needed:\0A\00", align 1
@.str.7 = private unnamed_addr constant [53 x i8] c"    fsm_detect          unless got option -nodetect\0A\00", align 1
@.str.8 = private unnamed_addr constant [17 x i8] c"    fsm_extract\0A\00", align 1
@.str.9 = private unnamed_addr constant [13 x i8] c"    fsm_opt\0A\00", align 1
@.str.10 = private unnamed_addr constant [15 x i8] c"    opt_clean\0A\00", align 1
@.str.11 = private unnamed_addr constant [47 x i8] c"    fsm_expand          if got option -expand\0A\00", align 1
@.str.12 = private unnamed_addr constant [47 x i8] c"    opt_clean           if got option -expand\0A\00", align 1
@.str.13 = private unnamed_addr constant [47 x i8] c"    fsm_opt             if got option -expand\0A\00", align 1
@.str.14 = private unnamed_addr constant [53 x i8] c"    fsm_recode          unless got option -norecode\0A\00", align 1
@.str.15 = private unnamed_addr constant [14 x i8] c"    fsm_info\0A\00", align 1
@.str.16 = private unnamed_addr constant [47 x i8] c"    fsm_export          if got option -export\0A\00", align 1
@.str.17 = private unnamed_addr constant [50 x i8] c"    fsm_map             unless got option -nomap\0A\00", align 1
@.str.18 = private unnamed_addr constant [10 x i8] c"Options:\0A\00", align 1
@.str.19 = private unnamed_addr constant [41 x i8] c"    -expand, -norecode, -export, -nomap\0A\00", align 1
@.str.20 = private unnamed_addr constant [53 x i8] c"        enable or disable passes as indicated above\0A\00", align 1
@.str.21 = private unnamed_addr constant [17 x i8] c"    -fullexpand\0A\00", align 1
@.str.22 = private unnamed_addr constant [39 x i8] c"        call expand with -full option\0A\00", align 1
@.str.23 = private unnamed_addr constant [20 x i8] c"    -encoding type\0A\00", align 1
@.str.24 = private unnamed_addr constant [27 x i8] c"    -fm_set_fsm_file file\0A\00", align 1
@.str.25 = private unnamed_addr constant [19 x i8] c"    -encfile file\0A\00", align 1
@.str.26 = private unnamed_addr constant [43 x i8] c"        passed through to fsm_recode pass\0A\00", align 1
@.str.27 = private unnamed_addr constant [79 x i8] c"This pass uses a subset of FF types to detect FSMs. Run 'opt -nosdff -nodffe'\0A\00", align 1
@.str.28 = private unnamed_addr constant [41 x i8] c"before this pass to prepare the design.\0A\00", align 1

; Function Attrs: mustprogress uwtable
define internal void @_ZN12_GLOBAL__N_17FsmPass4helpEv(ptr noundef nonnull align 8 dereferenceable(104) %0) unnamed_addr #4 align 2 {
  %2 = alloca ptr, align 8
  store ptr %0, ptr %2, align 8
  call void (ptr, ...) @_ZN5Yosys3logEPKcz(ptr noundef @.str.3)
  call void (ptr, ...) @_ZN5Yosys3logEPKcz(ptr noundef @.str.4)
  call void (ptr, ...) @_ZN5Yosys3logEPKcz(ptr noundef @.str.3)
  call void (ptr, ...) @_ZN5Yosys3logEPKcz(ptr noundef @.str.5)
  call void (ptr, ...) @_ZN5Yosys3logEPKcz(ptr noundef @.str.6)
  call void (ptr, ...) @_ZN5Yosys3logEPKcz(ptr noundef @.str.3)
  call void (ptr, ...) @_ZN5Yosys3logEPKcz(ptr noundef @.str.7)
  call void (ptr, ...) @_ZN5Yosys3logEPKcz(ptr noundef @.str.8)
  call void (ptr, ...) @_ZN5Yosys3logEPKcz(ptr noundef @.str.3)
  call void (ptr, ...) @_ZN5Yosys3logEPKcz(ptr noundef @.str.9)
  call void (ptr, ...) @_ZN5Yosys3logEPKcz(ptr noundef @.str.10)
  call void (ptr, ...) @_ZN5Yosys3logEPKcz(ptr noundef @.str.9)
  call void (ptr, ...) @_ZN5Yosys3logEPKcz(ptr noundef @.str.3)
  call void (ptr, ...) @_ZN5Yosys3logEPKcz(ptr noundef @.str.11)
  call void (ptr, ...) @_ZN5Yosys3logEPKcz(ptr noundef @.str.12)
  call void (ptr, ...) @_ZN5Yosys3logEPKcz(ptr noundef @.str.13)
  call void (ptr, ...) @_ZN5Yosys3logEPKcz(ptr noundef @.str.3)
  call void (ptr, ...) @_ZN5Yosys3logEPKcz(ptr noundef @.str.14)
  call void (ptr, ...) @_ZN5Yosys3logEPKcz(ptr noundef @.str.3)
  call void (ptr, ...) @_ZN5Yosys3logEPKcz(ptr noundef @.str.15)
  call void (ptr, ...) @_ZN5Yosys3logEPKcz(ptr noundef @.str.3)
  call void (ptr, ...) @_ZN5Yosys3logEPKcz(ptr noundef @.str.16)
  call void (ptr, ...) @_ZN5Yosys3logEPKcz(ptr noundef @.str.17)
  call void (ptr, ...) @_ZN5Yosys3logEPKcz(ptr noundef @.str.3)
  call void (ptr, ...) @_ZN5Yosys3logEPKcz(ptr noundef @.str.18)
  call void (ptr, ...) @_ZN5Yosys3logEPKcz(ptr noundef @.str.3)
  call void (ptr, ...) @_ZN5Yosys3logEPKcz(ptr noundef @.str.19)
  call void (ptr, ...) @_ZN5Yosys3logEPKcz(ptr noundef @.str.20)
  call void (ptr, ...) @_ZN5Yosys3logEPKcz(ptr noundef @.str.3)
  call void (ptr, ...) @_ZN5Yosys3logEPKcz(ptr noundef @.str.21)
  call void (ptr, ...) @_ZN5Yosys3logEPKcz(ptr noundef @.str.22)
  call void (ptr, ...) @_ZN5Yosys3logEPKcz(ptr noundef @.str.3)
  call void (ptr, ...) @_ZN5Yosys3logEPKcz(ptr noundef @.str.23)
  call void (ptr, ...) @_ZN5Yosys3logEPKcz(ptr noundef @.str.24)
  call void (ptr, ...) @_ZN5Yosys3logEPKcz(ptr noundef @.str.25)
  call void (ptr, ...) @_ZN5Yosys3logEPKcz(ptr noundef @.str.26)
  call void (ptr, ...) @_ZN5Yosys3logEPKcz(ptr noundef @.str.3)
  call void (ptr, ...) @_ZN5Yosys3logEPKcz(ptr noundef @.str.27)
  call void (ptr, ...) @_ZN5Yosys3logEPKcz(ptr noundef @.str.28)
  call void (ptr, ...) @_ZN5Yosys3logEPKcz(ptr noundef @.str.3)
  ret void
}